; ModuleID = '6/3397.c'
source_filename = "6/3397.c"
target datalayout = "e-m:e-p270:32:32-p271:32:32-p272:64:64-i64:64-f80:128-n8:16:32:64-S128"
target triple = "x86_64-pc-linux-gnu"

@.str = private unnamed_addr constant [3 x i8] c"%d\00", align 1
@.str.1 = private unnamed_addr constant [5 x i8] c"%d%d\00", align 1
@.str.2 = private unnamed_addr constant [4 x i8] c"%d\0A\00", align 1

; Function Attrs: noinline nounwind uwtable
define dso_local i32 @main() #0 {
  %1 = alloca i32, align 4
  %2 = alloca i32, align 4
  %3 = alloca i32, align 4
  %4 = alloca i32, align 4
  %5 = alloca i32, align 4
  %6 = alloca i32, align 4
  %7 = alloca i32, align 4
  %8 = alloca i32, align 4
  store i32 0, i32* %1, align 4
  %9 = call i32 (i8*, ...) @__isoc99_scanf(i8* getelementptr inbounds ([3 x i8], [3 x i8]* @.str, i64 0, i64 0), i32* %2)
  br label %10

10:                                               ; preds = %67, %0
  %11 = load i32, i32* %2, align 4
  %12 = add nsw i32 %11, -1
  store i32 %12, i32* %2, align 4
  %13 = icmp ne i32 %11, 0
  br i1 %13, label %14, label %70

14:                                               ; preds = %10
  %15 = call i32 (i8*, ...) @__isoc99_scanf(i8* getelementptr inbounds ([5 x i8], [5 x i8]* @.str.1, i64 0, i64 0), i32* %4, i32* %3)
  store i32 0, i32* %5, align 4
  store i32 1, i32* %6, align 4
  br label %16

16:                                               ; preds = %64, %14
  %17 = load i32, i32* %6, align 4
  %18 = load i32, i32* %4, align 4
  %19 = icmp sle i32 %17, %18
  br i1 %19, label %20, label %67

20:                                               ; preds = %16
  %21 = load i32, i32* %6, align 4
  %22 = icmp eq i32 %21, 1
  br i1 %22, label %27, label %23

23:                                               ; preds = %20
  %24 = load i32, i32* %6, align 4
  %25 = load i32, i32* %4, align 4
  %26 = icmp eq i32 %24, %25
  br i1 %26, label %27, label %41

27:                                               ; preds = %23, %20
  store i32 1, i32* %7, align 4
  br label %28

28:                                               ; preds = %37, %27
  %29 = load i32, i32* %7, align 4
  %30 = load i32, i32* %3, align 4
  %31 = icmp sle i32 %29, %30
  br i1 %31, label %32, label %40

32:                                               ; preds = %28
  %33 = call i32 (i8*, ...) @__isoc99_scanf(i8* getelementptr inbounds ([3 x i8], [3 x i8]* @.str, i64 0, i64 0), i32* %8)
  %34 = load i32, i32* %8, align 4
  %35 = load i32, i32* %5, align 4
  %36 = add nsw i32 %35, %34
  store i32 %36, i32* %5, align 4
  br label %37

37:                                               ; preds = %32
  %38 = load i32, i32* %7, align 4
  %39 = add nsw i32 %38, 1
  store i32 %39, i32* %7, align 4
  br label %28

40:                                               ; preds = %28
  br label %63

41:                                               ; preds = %23
  store i32 1, i32* %7, align 4
  br label %42

42:                                               ; preds = %59, %41
  %43 = load i32, i32* %7, align 4
  %44 = load i32, i32* %3, align 4
  %45 = icmp sle i32 %43, %44
  br i1 %45, label %46, label %62

46:                                               ; preds = %42
  %47 = call i32 (i8*, ...) @__isoc99_scanf(i8* getelementptr inbounds ([3 x i8], [3 x i8]* @.str, i64 0, i64 0), i32* %8)
  %48 = load i32, i32* %7, align 4
  %49 = icmp eq i32 %48, 1
  br i1 %49, label %54, label %50

50:                                               ; preds = %46
  %51 = load i32, i32* %7, align 4
  %52 = load i32, i32* %3, align 4
  %53 = icmp eq i32 %51, %52
  br i1 %53, label %54, label %58

54:                                               ; preds = %50, %46
  %55 = load i32, i32* %8, align 4
  %56 = load i32, i32* %5, align 4
  %57 = add nsw i32 %56, %55
  store i32 %57, i32* %5, align 4
  br label %58

58:                                               ; preds = %54, %50
  br label %59

59:                                               ; preds = %58
  %60 = load i32, i32* %7, align 4
  %61 = add nsw i32 %60, 1
  store i32 %61, i32* %7, align 4
  br label %42

62:                                               ; preds = %42
  br label %63

63:                                               ; preds = %62, %40
  br label %64

64:                                               ; preds = %63
  %65 = load i32, i32* %6, align 4
  %66 = add nsw i32 %65, 1
  store i32 %66, i32* %6, align 4
  br label %16

67:                                               ; preds = %16
  %68 = load i32, i32* %5, align 4
  %69 = call i32 (i8*, ...) @printf(i8* getelementptr inbounds ([4 x i8], [4 x i8]* @.str.2, i64 0, i64 0), i32 %68)
  br label %10

70:                                               ; preds = %10
  ret i32 0
}

declare dso_local i32 @__isoc99_scanf(i8*, ...) #1

declare dso_local i32 @printf(i8*, ...) #1


!llvm.module.flags = !{!0}
!llvm.ident = !{!1}

!0 = !{i32 1, !"wchar_size", i32 4}
!1 = !{!"clang version 10.0.0-4ubuntu1 "}
